(dp1
S'axiom_plugins'
p2
ccopy_reg
_reconstructor
p3
(ctwisted.plugin
CachedDropin
p4
c__builtin__
object
p5
NtRp6
(dp7
S'moduleName'
p8
S'axiom.plugins.axiom_plugins'
p9
sS'description'
p10
S'\nPlugins provided by Axiom for Axiom.\n'
p11
sS'plugins'
p12
(lp13
g3
(ctwisted.plugin
CachedPlugin
p14
g5
NtRp15
(dp16
S'provided'
p17
(lp18
ctwisted.plugin
IPlugin
p19
acaxiom.iaxiom
IAxiomaticCommand
p20
asS'dropin'
p21
g6
sS'name'
p22
S'Browse'
p23
sg10
Nsbag3
(g14
g5
NtRp24
(dp25
g17
(lp26
g19
ag20
asg21
g6
sg22
S'ListVersions'
p27
sg10
S'\n    Command for listing the version history of a store.\n    '
p28
sbag3
(g14
g5
NtRp29
(dp30
g17
(lp31
g19
ag20
asg21
g6
sg22
S'Upgrade'
p32
sg10
Nsbag3
(g14
g5
NtRp33
(dp34
g17
(lp35
g19
acaxiom.iaxiom
IVersion
p36
asg21
g6
sg22
S'version'
p37
sg10
S'\n    An object that represents a three-part version number.\n\n    If running from an svn checkout, include the revision number in\n    the version string.\n    '
p38
sbag3
(g14
g5
NtRp39
(dp40
g17
(lp41
g19
ag20
asg21
g6
sg22
S'Insert'
p42
sg10
Nsbag3
(g14
g5
NtRp43
(dp44
g17
(lp45
g19
ag20
asg21
g6
sg22
S'Extract'
p46
sg10
Nsbag3
(g14
g5
NtRp47
(dp48
g17
(lp49
g19
ag20
asg21
g6
sg22
S'UserBaseCommand'
p50
sg10
Nsbasbs.