(dp1
S'squeal_manhole'
p2
ccopy_reg
_reconstructor
p3
(ctwisted.plugin
CachedDropin
p4
c__builtin__
object
p5
NtRp6
(dp7
S'moduleName'
p8
S'squeal.plugins.squeal_manhole'
p9
sS'description'
p10
NsS'plugins'
p11
(lp12
g3
(ctwisted.plugin
CachedPlugin
p13
g5
NtRp14
(dp15
S'provided'
p16
(lp17
csqueal.isqueal
ISquealPlugin
p18
asS'dropin'
p19
g6
sS'name'
p20
S'ManholePlugin'
p21
sg10
NsbasbsS'squeal_local'
p22
g3
(g4
g5
NtRp23
(dp24
S'moduleName'
p25
S'squeal.plugins.squeal_local'
p26
sS'description'
p27
NsS'plugins'
p28
(lp29
g3
(g13
g5
NtRp30
(dp31
S'provided'
p32
(lp33
g18
asS'dropin'
p34
g23
sS'name'
p35
S'LibraryPlugin'
p36
sg27
NsbasbsS'squeal_spotify'
p37
g3
(g4
g5
NtRp38
(dp39
S'moduleName'
p40
S'squeal.plugins.squeal_spotify'
p41
sS'description'
p42
NsS'plugins'
p43
(lp44
g3
(g13
g5
NtRp45
(dp46
S'provided'
p47
(lp48
g18
asS'dropin'
p49
g38
sS'name'
p50
S'SpotifyPlugin'
p51
sg42
Nsbasbs.