(dp1
S'squeal_local'
p2
ccopy_reg
_reconstructor
p3
(ctwisted.plugin
CachedDropin
p4
c__builtin__
object
p5
NtRp6
(dp7
S'moduleName'
p8
S'squeal.plugins.squeal_local'
p9
sS'description'
p10
NsS'plugins'
p11
(lp12
g3
(ctwisted.plugin
CachedPlugin
p13
g5
NtRp14
(dp15
S'provided'
p16
(lp17
csqueal.isqueal
ISquealPlugin
p18
asS'dropin'
p19
g6
sS'name'
p20
S'LibraryPlugin'
p21
sg10
NsbasbsS'squeal_spotify'
p22
g3
(g4
g5
NtRp23
(dp24
S'moduleName'
p25
S'squeal.plugins.squeal_spotify'
p26
sS'description'
p27
NsS'plugins'
p28
(lp29
g3
(g13
g5
NtRp30
(dp31
S'provided'
p32
(lp33
g18
asS'dropin'
p34
g23
sS'name'
p35
S'SpotifyPlugin'
p36
sg27
Nsbasbs.