(dp1
S'squeal_manhole'
p2
ccopy_reg
_reconstructor
p3
(ctwisted.plugin
CachedDropin
p4
c__builtin__
object
p5
NtRp6
(dp7
S'moduleName'
p8
S'squeal.plugins.squeal_manhole'
p9
sS'description'
p10
NsS'plugins'
p11
(lp12
g3
(ctwisted.plugin
CachedPlugin
p13
g5
NtRp14
(dp15
S'provided'
p16
(lp17
csqueal.isqueal
ISquealPlugin
p18
asS'dropin'
p19
g6
sS'name'
p20
S'ManholePlugin'
p21
sg10
NsbasbsS'squeal_local'
p22
g3
(g4
g5
NtRp23
(dp24
g8
S'squeal.plugins.squeal_local'
p25
sg10
Nsg11
(lp26
g3
(g13
g5
NtRp27
(dp28
g16
(lp29
g18
asg19
g23
sg20
S'LibraryPlugin'
p30
sg10
NsbasbsS'squeal_spotify'
p31
g3
(g4
g5
NtRp32
(dp33
g8
S'squeal.plugins.squeal_spotify'
p34
sg10
Nsg11
(lp35
g3
(g13
g5
NtRp36
(dp37
g16
(lp38
g18
asg19
g32
sg20
S'SpotifyPlugin'
p39
sg10
Nsbasbs.