(dp1
S'squeal_package'
p2
ccopy_reg
_reconstructor
p3
(ctwisted.plugin
CachedDropin
p4
c__builtin__
object
p5
NtRp6
(dp7
S'moduleName'
p8
S'nevow.plugins.squeal_package'
p9
sS'description'
p10
NsS'plugins'
p11
(lp12
g3
(ctwisted.plugin
CachedPlugin
p13
g5
NtRp14
(dp15
S'provided'
p16
(lp17
ctwisted.plugin
IPlugin
p18
acnevow.inevow
IJavascriptPackage
p19
asS'dropin'
p20
g6
sS'name'
p21
S'squealJS'
p22
sg10
S'\n    A Javascript package.\n\n    @type mapping: C{dict}\n    @ivar mapping: Mapping between JS module names and C{str} representing\n    filesystem paths containing their implementations.\n    '
p23
sbasbsS'formlet_package'
p24
g3
(g4
g5
NtRp25
(dp26
S'moduleName'
p27
S'nevow.plugins.formlet_package'
p28
sS'description'
p29
NsS'plugins'
p30
(lp31
g3
(g13
g5
NtRp32
(dp33
S'provided'
p34
(lp35
g18
ag19
asS'dropin'
p36
g25
sS'name'
p37
S'formletJS'
p38
sg29
S'\n    A Javascript package.\n\n    @type mapping: C{dict}\n    @ivar mapping: Mapping between JS module names and C{str} representing\n    filesystem paths containing their implementations.\n    '
p39
sbasbsS'nevow_package'
p40
g3
(g4
g5
NtRp41
(dp42
S'moduleName'
p43
S'nevow.plugins.nevow_package'
p44
sS'description'
p45
NsS'plugins'
p46
(lp47
g3
(g13
g5
NtRp48
(dp49
S'provided'
p50
(lp51
g18
acnevow.inevow
ICSSPackage
p52
asS'dropin'
p53
g41
sS'name'
p54
S'nevowCSSPkg'
p55
sg45
S'\n    Like L{AutoJSPackage}, but for CSS packages.  Modules within this package\n    can be referenced by L{LivePage.cssModule} or L{LiveElement.cssModule}.\n    '
p56
sbag3
(g13
g5
NtRp57
(dp58
g50
(lp59
g18
ag19
asg53
g41
sg54
S'nevowPkg'
p60
sg45
S'\n    A L{inevow.IJavascriptPackage} implementation that scans an on-disk\n    hierarchy locating modules and packages.\n\n    @type baseDir: C{str}\n    @ivar baseDir: A path to the root of a JavaScript packages/modules\n    filesystem hierarchy.\n    '
p61
sbasbs.